target datalayout = "e-m:e-p270:32:32-p271:32:32-p272:64:64-i64:64-i128:128-f80:128-n8:16:32:64-S128"
target triple = "x86_64-pc-linux-gnu"

%struct.test_fixture = type { ptr, i32, ptr, ptr, ptr, ptr, i32 }

@endentity1 = internal global ptr null, align 8
@endentity2 = internal global ptr null, align 8
@intermediate = internal global ptr null, align 8
@root = internal global ptr null, align 8
@test_time_after_expiration = internal global i64 0, align 8
@.str.14 = private unnamed_addr constant [31 x i8] c"../openssl/test/cmp_vfy_test.c\00", align 1

; Function Attrs: nounwind uwtable
define internal void @tear_down(ptr noundef %0) #0 {
  %2 = alloca ptr, align 8
  store ptr %0, ptr %2, align 8, !tbaa !24
  %3 = load ptr, ptr %2, align 8, !tbaa !24
  %4 = getelementptr inbounds nuw %struct.test_fixture, ptr %3, i32 0, i32 3
  %5 = load ptr, ptr %4, align 8, !tbaa !31
  call void @OSSL_CMP_MSG_free(ptr noundef %5)
  %6 = load ptr, ptr %2, align 8, !tbaa !24
  %7 = getelementptr inbounds nuw %struct.test_fixture, ptr %6, i32 0, i32 2
  %8 = load ptr, ptr %7, align 8, !tbaa !32
  call void @OSSL_CMP_CTX_free(ptr noundef %8)
  %9 = load ptr, ptr %2, align 8, !tbaa !24
  call void @CRYPTO_free(ptr noundef %9, ptr noundef @.str.14, i32 noundef 47)
  ret void
}

; Function Attrs: nounwind uwtable
define internal i32 @add_untrusted(ptr noundef %0, ptr noundef %1) #0 {
  %3 = alloca ptr, align 8
  %4 = alloca ptr, align 8
  store ptr %0, ptr %3, align 8, !tbaa !61
  store ptr %1, ptr %4, align 8, !tbaa !4
  %5 = load ptr, ptr %3, align 8, !tbaa !61
  %6 = call ptr @OSSL_CMP_CTX_get0_untrusted(ptr noundef %5)
  %7 = load ptr, ptr %4, align 8, !tbaa !4
  %8 = call i32 @X509_add_cert(ptr noundef %6, ptr noundef %7, i32 noundef 1)
  ret i32 %8
}

; Function Attrs: nounwind uwtable
define internal i32 @add_trusted(ptr noundef %0, ptr noundef %1) #0 {
  %3 = alloca ptr, align 8
  %4 = alloca ptr, align 8
  store ptr %0, ptr %3, align 8, !tbaa !61
  store ptr %1, ptr %4, align 8, !tbaa !4
  %5 = load ptr, ptr %3, align 8, !tbaa !61
  %6 = call ptr @OSSL_CMP_CTX_get0_trustedStore(ptr noundef %5)
  %7 = load ptr, ptr %4, align 8, !tbaa !4
  %8 = call i32 @X509_STORE_add_cert(ptr noundef %6, ptr noundef %7)
  ret i32 %8
}

; Function Attrs: nounwind uwtable
define internal void @setup_path(ptr noundef %0, ptr noundef %1, i32 noundef %2) #0 {
  %4 = alloca ptr, align 8
  %5 = alloca ptr, align 8
  %6 = alloca i32, align 4
  %7 = alloca ptr, align 8
  %8 = alloca ptr, align 8
  store ptr %0, ptr %4, align 8, !tbaa !66
  store ptr %1, ptr %5, align 8, !tbaa !4
  store i32 %2, ptr %6, align 4, !tbaa !26
  %9 = load ptr, ptr @endentity2, align 8, !tbaa !4
  %10 = load ptr, ptr %4, align 8, !tbaa !66
  %11 = load ptr, ptr %10, align 8, !tbaa !24
  %12 = getelementptr inbounds nuw %struct.test_fixture, ptr %11, i32 0, i32 4
  store ptr %9, ptr %12, align 8, !tbaa !30
  %13 = load ptr, ptr %5, align 8, !tbaa !4
  %14 = icmp eq ptr %13, null
  br i1 %14, label %15, label %19

15:                                               ; preds = %3
  %16 = load i32, ptr %6, align 4, !tbaa !26
  %17 = icmp ne i32 %16, 0
  %18 = xor i1 %17, true
  br label %19

19:                                               ; preds = %15, %3
  %20 = phi i1 [ false, %3 ], [ %18, %15 ]
  %21 = zext i1 %20 to i32
  %22 = load ptr, ptr %4, align 8, !tbaa !66
  %23 = load ptr, ptr %22, align 8, !tbaa !24
  %24 = getelementptr inbounds nuw %struct.test_fixture, ptr %23, i32 0, i32 1
  store i32 %21, ptr %24, align 8, !tbaa !27
  %25 = load i32, ptr %6, align 4, !tbaa !26
  %26 = icmp ne i32 %25, 0
  br i1 %26, label %27, label %37

27:                                               ; preds = %19
  call void @llvm.lifetime.start.p0(i64 8, ptr %7) #7
  %28 = load ptr, ptr %4, align 8, !tbaa !66
  %29 = load ptr, ptr %28, align 8, !tbaa !24
  %30 = getelementptr inbounds nuw %struct.test_fixture, ptr %29, i32 0, i32 2
  %31 = load ptr, ptr %30, align 8, !tbaa !32
  %32 = call ptr @OSSL_CMP_CTX_get0_trustedStore(ptr noundef %31)
  store ptr %32, ptr %7, align 8, !tbaa !39
  call void @llvm.lifetime.start.p0(i64 8, ptr %8) #7
  %33 = load ptr, ptr %7, align 8, !tbaa !39
  %34 = call ptr @X509_STORE_get0_param(ptr noundef %33)
  store ptr %34, ptr %8, align 8, !tbaa !59
  %35 = load ptr, ptr %8, align 8, !tbaa !59
  %36 = load i64, ptr @test_time_after_expiration, align 8, !tbaa !22
  call void @X509_VERIFY_PARAM_set_time(ptr noundef %35, i64 noundef %36)
  call void @llvm.lifetime.end.p0(i64 8, ptr %8) #7
  call void @llvm.lifetime.end.p0(i64 8, ptr %7) #7
  br label %37

37:                                               ; preds = %27, %19
  %38 = load ptr, ptr %4, align 8, !tbaa !66
  %39 = load ptr, ptr %38, align 8, !tbaa !24
  %40 = getelementptr inbounds nuw %struct.test_fixture, ptr %39, i32 0, i32 2
  %41 = load ptr, ptr %40, align 8, !tbaa !32
  %42 = load ptr, ptr %5, align 8, !tbaa !4
  %43 = icmp eq ptr %42, null
  br i1 %43, label %44, label %46

44:                                               ; preds = %37
  %45 = load ptr, ptr @root, align 8, !tbaa !4
  br label %48

46:                                               ; preds = %37
  %47 = load ptr, ptr %5, align 8, !tbaa !4
  br label %48

48:                                               ; preds = %46, %44
  %49 = phi ptr [ %45, %44 ], [ %47, %46 ]
  %50 = call i32 @add_trusted(ptr noundef %41, ptr noundef %49)
  %51 = icmp ne i32 %50, 0
  br i1 %51, label %52, label %68

52:                                               ; preds = %48
  %53 = load ptr, ptr %4, align 8, !tbaa !66
  %54 = load ptr, ptr %53, align 8, !tbaa !24
  %55 = getelementptr inbounds nuw %struct.test_fixture, ptr %54, i32 0, i32 2
  %56 = load ptr, ptr %55, align 8, !tbaa !32
  %57 = load ptr, ptr @endentity1, align 8, !tbaa !4
  %58 = call i32 @add_untrusted(ptr noundef %56, ptr noundef %57)
  %59 = icmp ne i32 %58, 0
  br i1 %59, label %60, label %68

60:                                               ; preds = %52
  %61 = load ptr, ptr %4, align 8, !tbaa !66
  %62 = load ptr, ptr %61, align 8, !tbaa !24
  %63 = getelementptr inbounds nuw %struct.test_fixture, ptr %62, i32 0, i32 2
  %64 = load ptr, ptr %63, align 8, !tbaa !32
  %65 = load ptr, ptr @intermediate, align 8, !tbaa !4
  %66 = call i32 @add_untrusted(ptr noundef %64, ptr noundef %65)
  %67 = icmp ne i32 %66, 0
  br i1 %67, label %72, label %68

68:                                               ; preds = %60, %52, %48
  %69 = load ptr, ptr %4, align 8, !tbaa !66
  %70 = load ptr, ptr %69, align 8, !tbaa !24
  call void @tear_down(ptr noundef %70)
  %71 = load ptr, ptr %4, align 8, !tbaa !66
  store ptr null, ptr %71, align 8, !tbaa !24
  br label %72

72:                                               ; preds = %68, %60
  ret void
}