; Function Attrs: nounwind uwtable
define internal fastcc void @setup_path(ptr noundef nonnull captures(none) %0, ptr noundef %1, i32 noundef range(i32 0, 2) %2) unnamed_addr #0 {
  %4 = load ptr, ptr @endentity2, align 8, !tbaa !4
  %5 = load ptr, ptr %0, align 8, !tbaa !36
  %6 = getelementptr inbounds nuw i8, ptr %5, i64 32
  store ptr %4, ptr %6, align 8, !tbaa !29
  %7 = icmp eq ptr %1, null
  %.not = icmp eq i32 %2, 0
  %8 = and i1 %7, %.not
  %9 = zext i1 %8 to i32
  %10 = getelementptr inbounds nuw i8, ptr %5, i64 8
  store i32 %9, ptr %10, align 8, !tbaa !24
  br i1 %.not, label %17, label %11

11:                                               ; preds = %3
  %12 = getelementptr inbounds nuw i8, ptr %5, i64 16
  %13 = load ptr, ptr %12, align 8, !tbaa !28
  %14 = tail call ptr @OSSL_CMP_CTX_get0_trustedStore(ptr noundef %13) #7
  %15 = tail call ptr @X509_STORE_get0_param(ptr noundef %14) #7
  %16 = load i64, ptr @test_time_after_expiration, align 8, !tbaa !22
  tail call void @X509_VERIFY_PARAM_set_time(ptr noundef %15, i64 noundef %16) #7
  %.pre = load ptr, ptr %0, align 8, !tbaa !36
  br label %17

17:                                               ; preds = %11, %3
  %18 = phi ptr [ %.pre, %11 ], [ %5, %3 ]
  %19 = getelementptr inbounds nuw i8, ptr %18, i64 16
  %20 = load ptr, ptr %19, align 8, !tbaa !28
  %21 = load ptr, ptr @root, align 8
  %22 = select i1 %7, ptr %21, ptr %1
  %23 = tail call ptr @OSSL_CMP_CTX_get0_trustedStore(ptr noundef %20) #7
  %24 = tail call i32 @X509_STORE_add_cert(ptr noundef %23, ptr noundef %22) #7
  %.not14 = icmp eq i32 %24, 0
  br i1 %.not14, label %39, label %25

25:                                               ; preds = %17
  %26 = load ptr, ptr %0, align 8, !tbaa !36
  %27 = getelementptr inbounds nuw i8, ptr %26, i64 16
  %28 = load ptr, ptr %27, align 8, !tbaa !28
  %29 = load ptr, ptr @endentity1, align 8, !tbaa !4
  %30 = tail call ptr @OSSL_CMP_CTX_get0_untrusted(ptr noundef %28) #7
  %31 = tail call i32 @X509_add_cert(ptr noundef %30, ptr noundef %29, i32 noundef 1) #7
  %.not15 = icmp eq i32 %31, 0
  br i1 %.not15, label %39, label %32

32:                                               ; preds = %25
  %33 = load ptr, ptr %0, align 8, !tbaa !36
  %34 = getelementptr inbounds nuw i8, ptr %33, i64 16
  %35 = load ptr, ptr %34, align 8, !tbaa !28
  %36 = load ptr, ptr @intermediate, align 8, !tbaa !4
  %37 = tail call ptr @OSSL_CMP_CTX_get0_untrusted(ptr noundef %35) #7
  %38 = tail call i32 @X509_add_cert(ptr noundef %37, ptr noundef %36, i32 noundef 1) #7
  %.not16 = icmp eq i32 %38, 0
  br i1 %.not16, label %39, label %45

39:                                               ; preds = %32, %25, %17
  %40 = load ptr, ptr %0, align 8, !tbaa !36
  %41 = getelementptr inbounds nuw i8, ptr %40, i64 24
  %42 = load ptr, ptr %41, align 8, !tbaa !27
  tail call void @OSSL_CMP_MSG_free(ptr noundef %42) #7
  %43 = getelementptr inbounds nuw i8, ptr %40, i64 16
  %44 = load ptr, ptr %43, align 8, !tbaa !28
  tail call void @OSSL_CMP_CTX_free(ptr noundef %44) #7
  tail call void @CRYPTO_free(ptr noundef %40, ptr noundef nonnull @.str.14, i32 noundef 47) #7
  store ptr null, ptr %0, align 8, !tbaa !36
  br label %45

45:                                               ; preds = %39, %32
  ret void
}